target datalayout = "e-m:e-p270:32:32-p271:32:32-p272:64:64-i64:64-i128:128-f80:128-n8:16:32:64-S128"
target triple = "x86_64-unknown-linux-gnu"

%"class.std::__cxx11::basic_string" = type { %"struct.std::__cxx11::basic_string<char>::_Alloc_hider", i64, %union.anon }
%"struct.std::__cxx11::basic_string<char>::_Alloc_hider" = type { ptr }
%union.anon = type { i64, [8 x i8] }

@.str.9 = private unnamed_addr constant [17 x i8] c" 000000000000\1000\00", align 1
@.str.10 = private unnamed_addr constant [17 x i8] c"\00\00\00\00\00\00\00\00\1E\0F\0F\0F\00\00\00\00\00", align 1
@.str.11 = private unnamed_addr constant [3 x i8] c"\\b\00", align 1
@.str.12 = private unnamed_addr constant [3 x i8] c"\\f\00", align 1
@.str.13 = private unnamed_addr constant [3 x i8] c"\\n\00", align 1
@.str.14 = private unnamed_addr constant [3 x i8] c"\\r\00", align 1
@.str.15 = private unnamed_addr constant [3 x i8] c"\\t\00", align 1
@.str.16 = private unnamed_addr constant [3 x i8] c"\\\\\00", align 1
@.str.17 = private unnamed_addr constant [3 x i8] c"\\\22\00", align 1
@.str.18 = private unnamed_addr constant [7 x i8] c"\\u%04X\00", align 1

; Function Attrs: mustprogress nounwind uwtable
define linkonce_odr dso_local noundef i64 @_ZN4node9arraysizeIcLm10EEEmRAT0__KT_(ptr noundef nonnull align 1 dereferenceable(10) %0) #0 comdat {
entry:
  %.addr = alloca ptr, align 8
  store ptr %0, ptr %.addr, align 8
  ret i64 10
}

; Function Attrs: mustprogress nounwind uwtable
define internal void @_ZN4node7tracing12_GLOBAL__N_112EscapeStringB5cxx11EPKc(ptr noalias sret(%"class.std::__cxx11::basic_string") align 8 %agg.result, ptr noundef %value) #0 {
entry:
  %result.ptr = alloca ptr, align 8
  %value.addr = alloca ptr, align 8
  %nrvo = alloca i1, align 1
  %number_buffer = alloca [10 x i8], align 1
  %len = alloca i32, align 4
  %p = alloca i32, align 4
  %i = alloca i32, align 4
  %c = alloca i32, align 4
  %__t = alloca i8, align 1
  store ptr %agg.result, ptr %result.ptr, align 8
  store ptr %value, ptr %value.addr, align 8
  store i1 false, ptr %nrvo, align 1
  call void @_ZNSt7__cxx1112basic_stringIcSt11char_traitsIcESaIcEEC1Ev(ptr noundef nonnull align 8 dereferenceable(32) %agg.result) #9
  %call = call noundef nonnull align 8 dereferenceable(32) ptr @_ZNSt7__cxx1112basic_stringIcSt11char_traitsIcESaIcEEpLEc(ptr noundef nonnull align 8 dereferenceable(32) %agg.result, i8 noundef signext 34)
  %0 = load ptr, ptr %value.addr, align 8
  %call1 = call i64 @strlen(ptr noundef %0) #10
  %conv = trunc i64 %call1 to i32
  store i32 %conv, ptr %len, align 4
  store i32 0, ptr %p, align 4
  store i32 0, ptr %i, align 4
  br label %for.cond

for.cond:                                         ; preds = %for.inc, %entry
  %1 = load i32, ptr %i, align 4
  %2 = load i32, ptr %len, align 4
  %cmp = icmp slt i32 %1, %2
  br i1 %cmp, label %for.body, label %for.end

for.body:                                         ; preds = %for.cond
  br label %do.body

do.body:                                          ; preds = %for.body
  %3 = load ptr, ptr %value.addr, align 8
  %4 = load i32, ptr %i, align 4
  %inc = add nsw i32 %4, 1
  store i32 %inc, ptr %i, align 4
  %idxprom = sext i32 %4 to i64
  %arrayidx = getelementptr inbounds i8, ptr %3, i64 %idxprom
  %5 = load i8, ptr %arrayidx, align 1
  %conv2 = zext i8 %5 to i32
  store i32 %conv2, ptr %c, align 4
  %6 = load i32, ptr %c, align 4
  %and = and i32 %6, 128
  %cmp3 = icmp eq i32 %and, 0
  br i1 %cmp3, label %if.end70, label %if.then

if.then:                                          ; preds = %do.body
  store i8 0, ptr %__t, align 1
  %7 = load i32, ptr %i, align 4
  %8 = load i32, ptr %len, align 4
  %cmp4 = icmp ne i32 %7, %8
  br i1 %cmp4, label %land.lhs.true, label %if.else

land.lhs.true:                                    ; preds = %if.then
  %9 = load i32, ptr %c, align 4
  %cmp5 = icmp sge i32 %9, 224
  br i1 %cmp5, label %cond.true, label %cond.false52

cond.true:                                        ; preds = %land.lhs.true
  %10 = load i32, ptr %c, align 4
  %cmp6 = icmp slt i32 %10, 240
  br i1 %cmp6, label %cond.true7, label %cond.false

cond.true7:                                       ; preds = %cond.true
  %11 = load i32, ptr %c, align 4
  %and8 = and i32 %11, 15
  store i32 %and8, ptr %c, align 4
  %idxprom9 = sext i32 %and8 to i64
  %arrayidx10 = getelementptr inbounds [17 x i8], ptr @.str.9, i64 0, i64 %idxprom9
  %12 = load i8, ptr %arrayidx10, align 1
  %conv11 = sext i8 %12 to i32
  %13 = load ptr, ptr %value.addr, align 8
  %14 = load i32, ptr %i, align 4
  %idxprom12 = sext i32 %14 to i64
  %arrayidx13 = getelementptr inbounds i8, ptr %13, i64 %idxprom12
  %15 = load i8, ptr %arrayidx13, align 1
  store i8 %15, ptr %__t, align 1
  %conv14 = zext i8 %15 to i32
  %shr = ashr i32 %conv14, 5
  %shl = shl i32 1, %shr
  %and15 = and i32 %conv11, %shl
  %tobool = icmp ne i32 %and15, 0
  br i1 %tobool, label %land.lhs.true16, label %if.else

land.lhs.true16:                                  ; preds = %cond.true7
  %16 = load i8, ptr %__t, align 1
  %conv17 = zext i8 %16 to i32
  %and18 = and i32 %conv17, 63
  %conv19 = trunc i32 %and18 to i8
  store i8 %conv19, ptr %__t, align 1
  br i1 true, label %land.lhs.true46, label %if.else

cond.false:                                       ; preds = %cond.true
  %17 = load i32, ptr %c, align 4
  %sub = sub nsw i32 %17, 240
  store i32 %sub, ptr %c, align 4
  %cmp20 = icmp sle i32 %sub, 4
  br i1 %cmp20, label %land.lhs.true21, label %if.else

land.lhs.true21:                                  ; preds = %cond.false
  %18 = load ptr, ptr %value.addr, align 8
  %19 = load i32, ptr %i, align 4
  %idxprom22 = sext i32 %19 to i64
  %arrayidx23 = getelementptr inbounds i8, ptr %18, i64 %idxprom22
  %20 = load i8, ptr %arrayidx23, align 1
  store i8 %20, ptr %__t, align 1
  %conv24 = zext i8 %20 to i32
  %shr25 = ashr i32 %conv24, 4
  %idxprom26 = sext i32 %shr25 to i64
  %arrayidx27 = getelementptr inbounds [17 x i8], ptr @.str.10, i64 0, i64 %idxprom26
  %21 = load i8, ptr %arrayidx27, align 1
  %conv28 = sext i8 %21 to i32
  %22 = load i32, ptr %c, align 4
  %shl29 = shl i32 1, %22
  %and30 = and i32 %conv28, %shl29
  %tobool31 = icmp ne i32 %and30, 0
  br i1 %tobool31, label %land.lhs.true32, label %if.else

land.lhs.true32:                                  ; preds = %land.lhs.true21
  %23 = load i32, ptr %c, align 4
  %shl33 = shl i32 %23, 6
  %24 = load i8, ptr %__t, align 1
  %conv34 = zext i8 %24 to i32
  %and35 = and i32 %conv34, 63
  %or = or i32 %shl33, %and35
  store i32 %or, ptr %c, align 4
  %25 = load i32, ptr %i, align 4
  %inc36 = add nsw i32 %25, 1
  store i32 %inc36, ptr %i, align 4
  %26 = load i32, ptr %len, align 4
  %cmp37 = icmp ne i32 %inc36, %26
  br i1 %cmp37, label %land.lhs.true38, label %if.else

land.lhs.true38:                                  ; preds = %land.lhs.true32
  %27 = load ptr, ptr %value.addr, align 8
  %28 = load i32, ptr %i, align 4
  %idxprom39 = sext i32 %28 to i64
  %arrayidx40 = getelementptr inbounds i8, ptr %27, i64 %idxprom39
  %29 = load i8, ptr %arrayidx40, align 1
  %conv41 = sext i8 %29 to i32
  %sub42 = sub nsw i32 %conv41, 128
  %conv43 = trunc i32 %sub42 to i8
  store i8 %conv43, ptr %__t, align 1
  %conv44 = zext i8 %conv43 to i32
  %cmp45 = icmp sle i32 %conv44, 63
  br i1 %cmp45, label %land.lhs.true46, label %if.else

land.lhs.true46:                                  ; preds = %land.lhs.true38, %land.lhs.true16
  %30 = load i32, ptr %c, align 4
  %shl47 = shl i32 %30, 6
  %31 = load i8, ptr %__t, align 1
  %conv48 = zext i8 %31 to i32
  %or49 = or i32 %shl47, %conv48
  store i32 %or49, ptr %c, align 4
  %32 = load i32, ptr %i, align 4
  %inc50 = add nsw i32 %32, 1
  store i32 %inc50, ptr %i, align 4
  %33 = load i32, ptr %len, align 4
  %cmp51 = icmp ne i32 %inc50, %33
  br i1 %cmp51, label %land.lhs.true56, label %if.else

cond.false52:                                     ; preds = %land.lhs.true
  %34 = load i32, ptr %c, align 4
  %cmp53 = icmp sge i32 %34, 194
  br i1 %cmp53, label %land.lhs.true54, label %if.else

land.lhs.true54:                                  ; preds = %cond.false52
  %35 = load i32, ptr %c, align 4
  %and55 = and i32 %35, 31
  store i32 %and55, ptr %c, align 4
  br i1 true, label %land.lhs.true56, label %if.else

land.lhs.true56:                                  ; preds = %land.lhs.true54, %land.lhs.true46
  %36 = load ptr, ptr %value.addr, align 8
  %37 = load i32, ptr %i, align 4
  %idxprom57 = sext i32 %37 to i64
  %arrayidx58 = getelementptr inbounds i8, ptr %36, i64 %idxprom57
  %38 = load i8, ptr %arrayidx58, align 1
  %conv59 = sext i8 %38 to i32
  %sub60 = sub nsw i32 %conv59, 128
  %conv61 = trunc i32 %sub60 to i8
  store i8 %conv61, ptr %__t, align 1
  %conv62 = zext i8 %conv61 to i32
  %cmp63 = icmp sle i32 %conv62, 63
  br i1 %cmp63, label %land.lhs.true64, label %if.else

land.lhs.true64:                                  ; preds = %land.lhs.true56
  %39 = load i32, ptr %c, align 4
  %shl65 = shl i32 %39, 6
  %40 = load i8, ptr %__t, align 1
  %conv66 = zext i8 %40 to i32
  %or67 = or i32 %shl65, %conv66
  store i32 %or67, ptr %c, align 4
  %41 = load i32, ptr %i, align 4
  %inc68 = add nsw i32 %41, 1
  store i32 %inc68, ptr %i, align 4
  br i1 true, label %if.then69, label %if.else

if.then69:                                        ; preds = %land.lhs.true64
  br label %if.end

if.else:                                          ; preds = %land.lhs.true64, %land.lhs.true56, %land.lhs.true54, %cond.false52, %land.lhs.true46, %land.lhs.true38, %land.lhs.true32, %land.lhs.true21, %cond.false, %land.lhs.true16, %cond.true7, %if.then
  store i32 65533, ptr %c, align 4
  br label %if.end

if.end:                                           ; preds = %if.else, %if.then69
  br label %if.end70

if.end70:                                         ; preds = %if.end, %do.body
  br label %do.cond

do.cond:                                          ; preds = %if.end70
  br label %do.end

do.end:                                           ; preds = %do.cond
  %42 = load i32, ptr %c, align 4
  switch i32 %42, label %sw.default [
    i32 8, label %sw.bb
    i32 12, label %sw.bb72
    i32 10, label %sw.bb74
    i32 13, label %sw.bb76
    i32 9, label %sw.bb78
    i32 92, label %sw.bb80
    i32 34, label %sw.bb82
  ]

sw.bb:                                            ; preds = %do.end
  %call71 = call noundef nonnull align 8 dereferenceable(32) ptr @_ZNSt7__cxx1112basic_stringIcSt11char_traitsIcESaIcEEpLEPKc(ptr noundef nonnull align 8 dereferenceable(32) %agg.result, ptr noundef @.str.11)
  br label %sw.epilog

sw.bb72:                                          ; preds = %do.end
  %call73 = call noundef nonnull align 8 dereferenceable(32) ptr @_ZNSt7__cxx1112basic_stringIcSt11char_traitsIcESaIcEEpLEPKc(ptr noundef nonnull align 8 dereferenceable(32) %agg.result, ptr noundef @.str.12)
  br label %sw.epilog

sw.bb74:                                          ; preds = %do.end
  %call75 = call noundef nonnull align 8 dereferenceable(32) ptr @_ZNSt7__cxx1112basic_stringIcSt11char_traitsIcESaIcEEpLEPKc(ptr noundef nonnull align 8 dereferenceable(32) %agg.result, ptr noundef @.str.13)
  br label %sw.epilog

sw.bb76:                                          ; preds = %do.end
  %call77 = call noundef nonnull align 8 dereferenceable(32) ptr @_ZNSt7__cxx1112basic_stringIcSt11char_traitsIcESaIcEEpLEPKc(ptr noundef nonnull align 8 dereferenceable(32) %agg.result, ptr noundef @.str.14)
  br label %sw.epilog

sw.bb78:                                          ; preds = %do.end
  %call79 = call noundef nonnull align 8 dereferenceable(32) ptr @_ZNSt7__cxx1112basic_stringIcSt11char_traitsIcESaIcEEpLEPKc(ptr noundef nonnull align 8 dereferenceable(32) %agg.result, ptr noundef @.str.15)
  br label %sw.epilog

sw.bb80:                                          ; preds = %do.end
  %call81 = call noundef nonnull align 8 dereferenceable(32) ptr @_ZNSt7__cxx1112basic_stringIcSt11char_traitsIcESaIcEEpLEPKc(ptr noundef nonnull align 8 dereferenceable(32) %agg.result, ptr noundef @.str.16)
  br label %sw.epilog

sw.bb82:                                          ; preds = %do.end
  %call83 = call noundef nonnull align 8 dereferenceable(32) ptr @_ZNSt7__cxx1112basic_stringIcSt11char_traitsIcESaIcEEpLEPKc(ptr noundef nonnull align 8 dereferenceable(32) %agg.result, ptr noundef @.str.17)
  br label %sw.epilog

sw.default:                                       ; preds = %do.end
  %43 = load i32, ptr %c, align 4
  %cmp84 = icmp slt i32 %43, 32
  br i1 %cmp84, label %if.then86, label %lor.lhs.false

lor.lhs.false:                                    ; preds = %sw.default
  %44 = load i32, ptr %c, align 4
  %cmp85 = icmp sgt i32 %44, 126
  br i1 %cmp85, label %if.then86, label %if.else93

if.then86:                                        ; preds = %lor.lhs.false, %sw.default
  %arraydecay = getelementptr inbounds [10 x i8], ptr %number_buffer, i64 0, i64 0
  %call87 = call noundef i64 @_ZN4node9arraysizeIcLm10EEEmRAT0__KT_(ptr noundef nonnull align 1 dereferenceable(10) %number_buffer)
  %45 = load i32, ptr %c, align 4
  %conv88 = trunc i32 %45 to i16
  %conv89 = zext i16 %conv88 to i32
  %call90 = call i32 (ptr, i64, ptr, ...) @snprintf(ptr noundef %arraydecay, i64 noundef %call87, ptr noundef @.str.18, i32 noundef %conv89) #9
  %arraydecay91 = getelementptr inbounds [10 x i8], ptr %number_buffer, i64 0, i64 0
  %call92 = call noundef nonnull align 8 dereferenceable(32) ptr @_ZNSt7__cxx1112basic_stringIcSt11char_traitsIcESaIcEEpLEPKc(ptr noundef nonnull align 8 dereferenceable(32) %agg.result, ptr noundef %arraydecay91)
  br label %if.end97

if.else93:                                        ; preds = %lor.lhs.false
  %46 = load ptr, ptr %value.addr, align 8
  %47 = load i32, ptr %p, align 4
  %idx.ext = sext i32 %47 to i64
  %add.ptr = getelementptr inbounds i8, ptr %46, i64 %idx.ext
  %48 = load i32, ptr %i, align 4
  %49 = load i32, ptr %p, align 4
  %sub94 = sub nsw i32 %48, %49
  %conv95 = sext i32 %sub94 to i64
  %call96 = call noundef nonnull align 8 dereferenceable(32) ptr @_ZNSt7__cxx1112basic_stringIcSt11char_traitsIcESaIcEE6appendEPKcm(ptr noundef nonnull align 8 dereferenceable(32) %agg.result, ptr noundef %add.ptr, i64 noundef %conv95)
  br label %if.end97

if.end97:                                         ; preds = %if.else93, %if.then86
  br label %sw.epilog

sw.epilog:                                        ; preds = %if.end97, %sw.bb82, %sw.bb80, %sw.bb78, %sw.bb76, %sw.bb74, %sw.bb72, %sw.bb
  br label %for.inc

for.inc:                                          ; preds = %sw.epilog
  %50 = load i32, ptr %i, align 4
  store i32 %50, ptr %p, align 4
  br label %for.cond, !llvm.loop !5

for.end:                                          ; preds = %for.cond
  %call98 = call noundef nonnull align 8 dereferenceable(32) ptr @_ZNSt7__cxx1112basic_stringIcSt11char_traitsIcESaIcEEpLEc(ptr noundef nonnull align 8 dereferenceable(32) %agg.result, i8 noundef signext 34)
  store i1 true, ptr %nrvo, align 1
  %nrvo.val = load i1, ptr %nrvo, align 1
  br i1 %nrvo.val, label %nrvo.skipdtor, label %nrvo.unused

nrvo.unused:                                      ; preds = %for.end
  call void @_ZNSt7__cxx1112basic_stringIcSt11char_traitsIcESaIcEED1Ev(ptr noundef nonnull align 8 dereferenceable(32) %agg.result) #9
  br label %nrvo.skipdtor

nrvo.skipdtor:                                    ; preds = %nrvo.unused, %for.end
  ret void
}