; Function Attrs: mustprogress nounwind uwtable
define internal fastcc void @_ZN4node7tracing12_GLOBAL__N_112EscapeStringB5cxx11EPKc(ptr noalias nonnull align 8 %agg.result, ptr noundef %value) unnamed_addr #0 {
entry:
  %number_buffer = alloca [10 x i8], align 1
  tail call void @_ZNSt7__cxx1112basic_stringIcSt11char_traitsIcESaIcEEC1Ev(ptr noundef nonnull align 8 dereferenceable(32) %agg.result) #10
  %call = tail call noundef nonnull align 8 dereferenceable(32) ptr @_ZNSt7__cxx1112basic_stringIcSt11char_traitsIcESaIcEEpLEc(ptr noundef nonnull align 8 dereferenceable(32) %agg.result, i8 noundef signext 34) #10
  %call1 = tail call i64 @strlen(ptr noundef nonnull dereferenceable(1) %value) #12
  %conv = trunc i64 %call1 to i32
  %cmp49 = icmp sgt i32 %conv, 0
  br i1 %cmp49, label %do.body, label %for.end

do.body:                                          ; preds = %entry, %for.inc
  %i.050 = phi i32 [ %i.441, %for.inc ], [ 0, %entry ]
  %inc = add nsw i32 %i.050, 1
  %idxprom = sext i32 %i.050 to i64
  %arrayidx = getelementptr inbounds i8, ptr %value, i64 %idxprom
  %0 = load i8, ptr %arrayidx, align 1
  %conv2 = zext i8 %0 to i32
  %cmp3 = icmp sgt i8 %0, -1
  br i1 %cmp3, label %do.end, label %if.then

if.then:                                          ; preds = %do.body
  %cmp4.not = icmp eq i32 %inc, %conv
  br i1 %cmp4.not, label %if.then86, label %land.lhs.true

land.lhs.true:                                    ; preds = %if.then
  %cmp5 = icmp ugt i8 %0, -33
  br i1 %cmp5, label %cond.true, label %cond.false52

cond.true:                                        ; preds = %land.lhs.true
  %cmp6 = icmp ult i8 %0, -16
  br i1 %cmp6, label %cond.true7, label %cond.false

cond.true7:                                       ; preds = %cond.true
  %and8 = and i32 %conv2, 15
  %idxprom9 = zext nneg i32 %and8 to i64
  %arrayidx10 = getelementptr inbounds [17 x i8], ptr @.str.9, i64 0, i64 %idxprom9
  %1 = load i8, ptr %arrayidx10, align 1
  %conv1153 = zext i8 %1 to i32
  %idxprom12 = sext i32 %inc to i64
  %arrayidx13 = getelementptr inbounds i8, ptr %value, i64 %idxprom12
  %2 = load i8, ptr %arrayidx13, align 1
  %3 = lshr i8 %2, 5
  %shr = zext nneg i8 %3 to i32
  %shl = shl nuw nsw i32 1, %shr
  %and15 = and i32 %shl, %conv1153
  %tobool.not = icmp eq i32 %and15, 0
  br i1 %tobool.not, label %if.then86, label %land.lhs.true16

land.lhs.true16:                                  ; preds = %cond.true7
  %and18 = and i8 %2, 63
  br label %land.lhs.true46

cond.false:                                       ; preds = %cond.true
  %sub = add nsw i32 %conv2, -240
  %cmp20 = icmp ult i8 %0, -11
  br i1 %cmp20, label %land.lhs.true21, label %if.then86

land.lhs.true21:                                  ; preds = %cond.false
  %idxprom22 = sext i32 %inc to i64
  %arrayidx23 = getelementptr inbounds i8, ptr %value, i64 %idxprom22
  %4 = load i8, ptr %arrayidx23, align 1
  %conv24 = zext i8 %4 to i32
  %shr25 = lshr i32 %conv24, 4
  %idxprom26 = zext nneg i32 %shr25 to i64
  %arrayidx27 = getelementptr inbounds [17 x i8], ptr @.str.10, i64 0, i64 %idxprom26
  %5 = load i8, ptr %arrayidx27, align 1
  %conv28 = sext i8 %5 to i32
  %shl29 = shl nuw nsw i32 1, %sub
  %and30 = and i32 %shl29, %conv28
  %tobool31.not = icmp eq i32 %and30, 0
  br i1 %tobool31.not, label %if.then86, label %land.lhs.true32

land.lhs.true32:                                  ; preds = %land.lhs.true21
  %inc36 = add nsw i32 %i.050, 2
  %cmp37.not = icmp eq i32 %inc36, %conv
  br i1 %cmp37.not, label %if.then86, label %land.lhs.true38

land.lhs.true38:                                  ; preds = %land.lhs.true32
  %shl33 = shl nuw nsw i32 %sub, 6
  %and35 = and i32 %conv24, 63
  %or = or disjoint i32 %and35, %shl33
  %idxprom39 = sext i32 %inc36 to i64
  %arrayidx40 = getelementptr inbounds i8, ptr %value, i64 %idxprom39
  %6 = load i8, ptr %arrayidx40, align 1
  %sub42 = xor i8 %6, -128
  %cmp45 = icmp ult i8 %sub42, 64
  br i1 %cmp45, label %land.lhs.true46, label %if.then86

land.lhs.true46:                                  ; preds = %land.lhs.true16, %land.lhs.true38
  %i.1 = phi i32 [ %inc, %land.lhs.true16 ], [ %inc36, %land.lhs.true38 ]
  %c.0 = phi i32 [ %and8, %land.lhs.true16 ], [ %or, %land.lhs.true38 ]
  %__t.0 = phi i8 [ %and18, %land.lhs.true16 ], [ %sub42, %land.lhs.true38 ]
  %shl47 = shl nuw nsw i32 %c.0, 6
  %conv48 = zext nneg i8 %__t.0 to i32
  %or49 = or disjoint i32 %shl47, %conv48
  %inc50 = add nsw i32 %i.1, 1
  %cmp51.not = icmp eq i32 %inc50, %conv
  br i1 %cmp51.not, label %if.then86, label %land.lhs.true56

cond.false52:                                     ; preds = %land.lhs.true
  %cmp53 = icmp ugt i8 %0, -63
  br i1 %cmp53, label %land.lhs.true54, label %if.then86

land.lhs.true54:                                  ; preds = %cond.false52
  %and55 = and i32 %conv2, 31
  br label %land.lhs.true56

land.lhs.true56:                                  ; preds = %land.lhs.true54, %land.lhs.true46
  %i.2 = phi i32 [ %inc50, %land.lhs.true46 ], [ %inc, %land.lhs.true54 ]
  %c.1 = phi i32 [ %or49, %land.lhs.true46 ], [ %and55, %land.lhs.true54 ]
  %idxprom57 = sext i32 %i.2 to i64
  %arrayidx58 = getelementptr inbounds i8, ptr %value, i64 %idxprom57
  %7 = load i8, ptr %arrayidx58, align 1
  %sub60 = xor i8 %7, -128
  %cmp63 = icmp ult i8 %sub60, 64
  br i1 %cmp63, label %land.lhs.true64, label %if.then86

land.lhs.true64:                                  ; preds = %land.lhs.true56
  %conv62 = zext nneg i8 %sub60 to i32
  %shl65 = shl nuw nsw i32 %c.1, 6
  %or67 = or disjoint i32 %shl65, %conv62
  %inc68 = add nsw i32 %i.2, 1
  br label %do.end

do.end:                                           ; preds = %land.lhs.true64, %do.body
  %i.4 = phi i32 [ %inc, %do.body ], [ %inc68, %land.lhs.true64 ]
  %c.2 = phi i32 [ %conv2, %do.body ], [ %or67, %land.lhs.true64 ]
  switch i32 %c.2, label %sw.default [
    i32 8, label %sw.bb
    i32 12, label %sw.bb72
    i32 10, label %sw.bb74
    i32 13, label %sw.bb76
    i32 9, label %sw.bb78
    i32 92, label %sw.bb80
    i32 34, label %sw.bb82
  ]

sw.bb:                                            ; preds = %do.end
  %call71 = call noundef nonnull align 8 dereferenceable(32) ptr @_ZNSt7__cxx1112basic_stringIcSt11char_traitsIcESaIcEEpLEPKc(ptr noundef nonnull align 8 dereferenceable(32) %agg.result, ptr noundef nonnull @.str.11) #10
  br label %for.inc

sw.bb72:                                          ; preds = %do.end
  %call73 = call noundef nonnull align 8 dereferenceable(32) ptr @_ZNSt7__cxx1112basic_stringIcSt11char_traitsIcESaIcEEpLEPKc(ptr noundef nonnull align 8 dereferenceable(32) %agg.result, ptr noundef nonnull @.str.12) #10
  br label %for.inc

sw.bb74:                                          ; preds = %do.end
  %call75 = call noundef nonnull align 8 dereferenceable(32) ptr @_ZNSt7__cxx1112basic_stringIcSt11char_traitsIcESaIcEEpLEPKc(ptr noundef nonnull align 8 dereferenceable(32) %agg.result, ptr noundef nonnull @.str.13) #10
  br label %for.inc

sw.bb76:                                          ; preds = %do.end
  %call77 = call noundef nonnull align 8 dereferenceable(32) ptr @_ZNSt7__cxx1112basic_stringIcSt11char_traitsIcESaIcEEpLEPKc(ptr noundef nonnull align 8 dereferenceable(32) %agg.result, ptr noundef nonnull @.str.14) #10
  br label %for.inc

sw.bb78:                                          ; preds = %do.end
  %call79 = call noundef nonnull align 8 dereferenceable(32) ptr @_ZNSt7__cxx1112basic_stringIcSt11char_traitsIcESaIcEEpLEPKc(ptr noundef nonnull align 8 dereferenceable(32) %agg.result, ptr noundef nonnull @.str.15) #10
  br label %for.inc

sw.bb80:                                          ; preds = %do.end
  %call81 = call noundef nonnull align 8 dereferenceable(32) ptr @_ZNSt7__cxx1112basic_stringIcSt11char_traitsIcESaIcEEpLEPKc(ptr noundef nonnull align 8 dereferenceable(32) %agg.result, ptr noundef nonnull @.str.16) #10
  br label %for.inc

sw.bb82:                                          ; preds = %do.end
  %call83 = call noundef nonnull align 8 dereferenceable(32) ptr @_ZNSt7__cxx1112basic_stringIcSt11char_traitsIcESaIcEEpLEPKc(ptr noundef nonnull align 8 dereferenceable(32) %agg.result, ptr noundef nonnull @.str.17) #10
  br label %for.inc

sw.default:                                       ; preds = %do.end
  %8 = add i32 %c.2, -127
  %or.cond = icmp ult i32 %8, -95
  br i1 %or.cond, label %if.then86, label %if.else93

if.then86:                                        ; preds = %land.lhs.true56, %cond.false52, %land.lhs.true46, %land.lhs.true38, %land.lhs.true32, %land.lhs.true21, %cond.false, %cond.true7, %if.then, %sw.default
  %i.44248 = phi i32 [ %i.4, %sw.default ], [ %conv, %if.then ], [ %inc, %cond.false52 ], [ %inc, %cond.false ], [ %inc, %land.lhs.true21 ], [ %conv, %land.lhs.true32 ], [ %inc36, %land.lhs.true38 ], [ %inc, %cond.true7 ], [ %conv, %land.lhs.true46 ], [ %i.2, %land.lhs.true56 ]
  %c.24347 = phi i32 [ %c.2, %sw.default ], [ 65533, %if.then ], [ 65533, %cond.false52 ], [ 65533, %cond.false ], [ 65533, %land.lhs.true21 ], [ 65533, %land.lhs.true32 ], [ 65533, %land.lhs.true38 ], [ 65533, %cond.true7 ], [ 65533, %land.lhs.true46 ], [ 65533, %land.lhs.true56 ]
  %conv89 = and i32 %c.24347, 65535
  %call90 = call i32 (ptr, i64, ptr, ...) @snprintf(ptr noundef nonnull dereferenceable(1) %number_buffer, i64 noundef 10, ptr noundef nonnull @.str.18, i32 noundef %conv89) #10
  %call92 = call noundef nonnull align 8 dereferenceable(32) ptr @_ZNSt7__cxx1112basic_stringIcSt11char_traitsIcESaIcEEpLEPKc(ptr noundef nonnull align 8 dereferenceable(32) %agg.result, ptr noundef nonnull %number_buffer) #10
  br label %for.inc

if.else93:                                        ; preds = %sw.default
  %sub94 = sub nsw i32 %i.4, %i.050
  %conv95 = sext i32 %sub94 to i64
  %call96 = call noundef nonnull align 8 dereferenceable(32) ptr @_ZNSt7__cxx1112basic_stringIcSt11char_traitsIcESaIcEE6appendEPKcm(ptr noundef nonnull align 8 dereferenceable(32) %agg.result, ptr noundef nonnull %arrayidx, i64 noundef %conv95) #10
  br label %for.inc

for.inc:                                          ; preds = %sw.bb, %sw.bb72, %sw.bb74, %sw.bb76, %sw.bb78, %sw.bb80, %sw.bb82, %if.else93, %if.then86
  %i.441 = phi i32 [ %i.4, %sw.bb ], [ %i.4, %sw.bb72 ], [ %i.4, %sw.bb74 ], [ %i.4, %sw.bb76 ], [ %i.4, %sw.bb78 ], [ %i.4, %sw.bb80 ], [ %i.4, %sw.bb82 ], [ %i.4, %if.else93 ], [ %i.44248, %if.then86 ]
  %cmp = icmp slt i32 %i.441, %conv
  br i1 %cmp, label %do.body, label %for.end, !llvm.loop !8

for.end:                                          ; preds = %for.inc, %entry
  %call98 = call noundef nonnull align 8 dereferenceable(32) ptr @_ZNSt7__cxx1112basic_stringIcSt11char_traitsIcESaIcEEpLEc(ptr noundef nonnull align 8 dereferenceable(32) %agg.result, i8 noundef signext 34) #10
  ret void
}